
timer indikator.elf:     file format elf32-avr

Sections:
Idx Name          Size      VMA       LMA       File off  Algn
  0 .text         0000056c  00000000  00000000  00000074  2**1
                  CONTENTS, ALLOC, LOAD, READONLY, CODE
  1 .data         00000000  00800060  00800060  000005e0  2**0
                  CONTENTS, ALLOC, LOAD, DATA
  2 .bss          0000000a  00800060  00800060  000005e0  2**0
                  ALLOC
  3 .comment      00000030  00000000  00000000  000005e0  2**0
                  CONTENTS, READONLY
  4 .note.gnu.avr.deviceinfo 0000003c  00000000  00000000  00000610  2**2
                  CONTENTS, READONLY
  5 .debug_aranges 000000f8  00000000  00000000  0000064c  2**0
                  CONTENTS, READONLY, DEBUGGING
  6 .debug_info   00001a04  00000000  00000000  00000744  2**0
                  CONTENTS, READONLY, DEBUGGING
  7 .debug_abbrev 0000074b  00000000  00000000  00002148  2**0
                  CONTENTS, READONLY, DEBUGGING
  8 .debug_line   00000b94  00000000  00000000  00002893  2**0
                  CONTENTS, READONLY, DEBUGGING
  9 .debug_frame  000002ec  00000000  00000000  00003428  2**2
                  CONTENTS, READONLY, DEBUGGING
 10 .debug_str    00000524  00000000  00000000  00003714  2**0
                  CONTENTS, READONLY, DEBUGGING
 11 .debug_loc    00001549  00000000  00000000  00003c38  2**0
                  CONTENTS, READONLY, DEBUGGING
 12 .debug_ranges 000000e8  00000000  00000000  00005181  2**0
                  CONTENTS, READONLY, DEBUGGING

Disassembly of section .text:

00000000 <__vectors>:
   0:	1c c0       	rjmp	.+56     	; 0x3a <__ctors_end>
   2:	2b c0       	rjmp	.+86     	; 0x5a <__bad_interrupt>
   4:	2a c0       	rjmp	.+84     	; 0x5a <__bad_interrupt>
   6:	29 c0       	rjmp	.+82     	; 0x5a <__bad_interrupt>
   8:	28 c0       	rjmp	.+80     	; 0x5a <__bad_interrupt>
   a:	27 c0       	rjmp	.+78     	; 0x5a <__bad_interrupt>
   c:	ba c1       	rjmp	.+884    	; 0x382 <__vector_6>
   e:	25 c0       	rjmp	.+74     	; 0x5a <__bad_interrupt>
  10:	24 c0       	rjmp	.+72     	; 0x5a <__bad_interrupt>
  12:	23 c0       	rjmp	.+70     	; 0x5a <__bad_interrupt>
  14:	22 c0       	rjmp	.+68     	; 0x5a <__bad_interrupt>
  16:	21 c0       	rjmp	.+66     	; 0x5a <__bad_interrupt>
  18:	20 c0       	rjmp	.+64     	; 0x5a <__bad_interrupt>
  1a:	1f c0       	rjmp	.+62     	; 0x5a <__bad_interrupt>
  1c:	1e c0       	rjmp	.+60     	; 0x5a <__bad_interrupt>
  1e:	1d c0       	rjmp	.+58     	; 0x5a <__bad_interrupt>
  20:	1c c0       	rjmp	.+56     	; 0x5a <__bad_interrupt>
  22:	1b c0       	rjmp	.+54     	; 0x5a <__bad_interrupt>
  24:	1a c0       	rjmp	.+52     	; 0x5a <__bad_interrupt>
  26:	82 c1       	rjmp	.+772    	; 0x32c <segchar+0x10>
  28:	83 c1       	rjmp	.+774    	; 0x330 <segchar+0x14>
  2a:	85 c1       	rjmp	.+778    	; 0x336 <segchar+0x1a>
  2c:	87 c1       	rjmp	.+782    	; 0x33c <segchar+0x20>
  2e:	89 c1       	rjmp	.+786    	; 0x342 <segchar+0x26>
  30:	8b c1       	rjmp	.+790    	; 0x348 <segchar+0x2c>
  32:	8d c1       	rjmp	.+794    	; 0x34e <segchar+0x32>
  34:	8f c1       	rjmp	.+798    	; 0x354 <segchar+0x38>
  36:	91 c1       	rjmp	.+802    	; 0x35a <segchar+0x3e>
  38:	93 c1       	rjmp	.+806    	; 0x360 <segchar+0x44>

0000003a <__ctors_end>:
  3a:	11 24       	eor	r1, r1
  3c:	1f be       	out	0x3f, r1	; 63
  3e:	cf e5       	ldi	r28, 0x5F	; 95
  40:	d4 e0       	ldi	r29, 0x04	; 4
  42:	de bf       	out	0x3e, r29	; 62
  44:	cd bf       	out	0x3d, r28	; 61

00000046 <__do_clear_bss>:
  46:	20 e0       	ldi	r18, 0x00	; 0
  48:	a0 e6       	ldi	r26, 0x60	; 96
  4a:	b0 e0       	ldi	r27, 0x00	; 0
  4c:	01 c0       	rjmp	.+2      	; 0x50 <.do_clear_bss_start>

0000004e <.do_clear_bss_loop>:
  4e:	1d 92       	st	X+, r1

00000050 <.do_clear_bss_start>:
  50:	aa 36       	cpi	r26, 0x6A	; 106
  52:	b2 07       	cpc	r27, r18
  54:	e1 f7       	brne	.-8      	; 0x4e <.do_clear_bss_loop>
  56:	50 d2       	rcall	.+1184   	; 0x4f8 <main>
  58:	87 c2       	rjmp	.+1294   	; 0x568 <_exit>

0000005a <__bad_interrupt>:
  5a:	d2 cf       	rjmp	.-92     	; 0x0 <__vectors>

0000005c <i2c_stop>:
		bcd = (dig1<<count1)|bcd;
		count1 += 4;
	}

	return bcd;
}
  5c:	a5 9a       	sbi	0x14, 5	; 20
  5e:	ad 98       	cbi	0x15, 5	; 21
  60:	8a e1       	ldi	r24, 0x1A	; 26
  62:	8a 95       	dec	r24
  64:	f1 f7       	brne	.-4      	; 0x62 <i2c_stop+0x6>
  66:	00 c0       	rjmp	.+0      	; 0x68 <i2c_stop+0xc>
  68:	a4 9a       	sbi	0x14, 4	; 20
  6a:	ac 98       	cbi	0x15, 4	; 21
  6c:	9a e1       	ldi	r25, 0x1A	; 26
  6e:	9a 95       	dec	r25
  70:	f1 f7       	brne	.-4      	; 0x6e <i2c_stop+0x12>
  72:	00 c0       	rjmp	.+0      	; 0x74 <i2c_stop+0x18>
  74:	a5 98       	cbi	0x14, 5	; 20
  76:	ad 9a       	sbi	0x15, 5	; 21
  78:	8a e1       	ldi	r24, 0x1A	; 26
  7a:	8a 95       	dec	r24
  7c:	f1 f7       	brne	.-4      	; 0x7a <i2c_stop+0x1e>
  7e:	00 c0       	rjmp	.+0      	; 0x80 <i2c_stop+0x24>
  80:	a4 98       	cbi	0x14, 4	; 20
  82:	ac 9a       	sbi	0x15, 4	; 21
  84:	9a e1       	ldi	r25, 0x1A	; 26
  86:	9a 95       	dec	r25
  88:	f1 f7       	brne	.-4      	; 0x86 <i2c_stop+0x2a>
  8a:	00 c0       	rjmp	.+0      	; 0x8c <i2c_stop+0x30>
  8c:	9c 99       	sbic	0x13, 4	; 19
  8e:	02 c0       	rjmp	.+4      	; 0x94 <i2c_stop+0x38>
  90:	82 e0       	ldi	r24, 0x02	; 2
  92:	01 c0       	rjmp	.+2      	; 0x96 <i2c_stop+0x3a>
  94:	80 e0       	ldi	r24, 0x00	; 0
  96:	9d 9b       	sbis	0x13, 5	; 19
  98:	8f 5f       	subi	r24, 0xFF	; 255
  9a:	9a e1       	ldi	r25, 0x1A	; 26
  9c:	9a 95       	dec	r25
  9e:	f1 f7       	brne	.-4      	; 0x9c <i2c_stop+0x40>
  a0:	00 c0       	rjmp	.+0      	; 0xa2 <i2c_stop+0x46>
  a2:	9a e1       	ldi	r25, 0x1A	; 26
  a4:	9a 95       	dec	r25
  a6:	f1 f7       	brne	.-4      	; 0xa4 <i2c_stop+0x48>
  a8:	00 c0       	rjmp	.+0      	; 0xaa <i2c_stop+0x4e>
  aa:	9a e1       	ldi	r25, 0x1A	; 26
  ac:	9a 95       	dec	r25
  ae:	f1 f7       	brne	.-4      	; 0xac <i2c_stop+0x50>
  b0:	00 c0       	rjmp	.+0      	; 0xb2 <i2c_stop+0x56>
  b2:	9a e1       	ldi	r25, 0x1A	; 26
  b4:	9a 95       	dec	r25
  b6:	f1 f7       	brne	.-4      	; 0xb4 <i2c_stop+0x58>
  b8:	00 c0       	rjmp	.+0      	; 0xba <i2c_stop+0x5e>
  ba:	08 95       	ret

000000bc <i2c_start>:
  bc:	a4 9a       	sbi	0x14, 4	; 20
  be:	ac 98       	cbi	0x15, 4	; 21
  c0:	8a e1       	ldi	r24, 0x1A	; 26
  c2:	8a 95       	dec	r24
  c4:	f1 f7       	brne	.-4      	; 0xc2 <i2c_start+0x6>
  c6:	00 c0       	rjmp	.+0      	; 0xc8 <i2c_start+0xc>
  c8:	a5 9a       	sbi	0x14, 5	; 20
  ca:	ad 98       	cbi	0x15, 5	; 21
  cc:	8a e1       	ldi	r24, 0x1A	; 26
  ce:	8a 95       	dec	r24
  d0:	f1 f7       	brne	.-4      	; 0xce <i2c_start+0x12>
  d2:	00 c0       	rjmp	.+0      	; 0xd4 <i2c_start+0x18>
  d4:	08 95       	ret

000000d6 <i2c_restart>:
  d6:	a4 98       	cbi	0x14, 4	; 20
  d8:	ac 9a       	sbi	0x15, 4	; 21
  da:	8a e1       	ldi	r24, 0x1A	; 26
  dc:	8a 95       	dec	r24
  de:	f1 f7       	brne	.-4      	; 0xdc <i2c_restart+0x6>
  e0:	00 c0       	rjmp	.+0      	; 0xe2 <i2c_restart+0xc>
  e2:	a5 98       	cbi	0x14, 5	; 20
  e4:	ad 9a       	sbi	0x15, 5	; 21
  e6:	8a e1       	ldi	r24, 0x1A	; 26
  e8:	8a 95       	dec	r24
  ea:	f1 f7       	brne	.-4      	; 0xe8 <i2c_restart+0x12>
  ec:	00 c0       	rjmp	.+0      	; 0xee <i2c_restart+0x18>
  ee:	a4 9a       	sbi	0x14, 4	; 20
  f0:	ac 98       	cbi	0x15, 4	; 21
  f2:	8a e1       	ldi	r24, 0x1A	; 26
  f4:	8a 95       	dec	r24
  f6:	f1 f7       	brne	.-4      	; 0xf4 <i2c_restart+0x1e>
  f8:	00 c0       	rjmp	.+0      	; 0xfa <i2c_restart+0x24>
  fa:	a5 9a       	sbi	0x14, 5	; 20
  fc:	ad 98       	cbi	0x15, 5	; 21
  fe:	8a e1       	ldi	r24, 0x1A	; 26
 100:	8a 95       	dec	r24
 102:	f1 f7       	brne	.-4      	; 0x100 <i2c_restart+0x2a>
 104:	00 c0       	rjmp	.+0      	; 0x106 <i2c_restart+0x30>
 106:	08 95       	ret

00000108 <i2c_init>:
 108:	a4 98       	cbi	0x14, 4	; 20
 10a:	ac 9a       	sbi	0x15, 4	; 21
 10c:	a5 98       	cbi	0x14, 5	; 20
 10e:	ad 9a       	sbi	0x15, 5	; 21
 110:	a5 df       	rcall	.-182    	; 0x5c <i2c_stop>
 112:	08 95       	ret

00000114 <i2c_send_byte>:
 114:	98 e0       	ldi	r25, 0x08	; 8
 116:	88 23       	and	r24, r24
 118:	1c f0       	brlt	.+6      	; 0x120 <i2c_send_byte+0xc>
 11a:	a4 9a       	sbi	0x14, 4	; 20
 11c:	ac 98       	cbi	0x15, 4	; 21
 11e:	02 c0       	rjmp	.+4      	; 0x124 <i2c_send_byte+0x10>
 120:	a4 98       	cbi	0x14, 4	; 20
 122:	ac 9a       	sbi	0x15, 4	; 21
 124:	2a e1       	ldi	r18, 0x1A	; 26
 126:	2a 95       	dec	r18
 128:	f1 f7       	brne	.-4      	; 0x126 <i2c_send_byte+0x12>
 12a:	00 c0       	rjmp	.+0      	; 0x12c <i2c_send_byte+0x18>
 12c:	a5 98       	cbi	0x14, 5	; 20
 12e:	ad 9a       	sbi	0x15, 5	; 21
 130:	2a e1       	ldi	r18, 0x1A	; 26
 132:	2a 95       	dec	r18
 134:	f1 f7       	brne	.-4      	; 0x132 <i2c_send_byte+0x1e>
 136:	00 c0       	rjmp	.+0      	; 0x138 <i2c_send_byte+0x24>
 138:	a5 9a       	sbi	0x14, 5	; 20
 13a:	ad 98       	cbi	0x15, 5	; 21
 13c:	88 0f       	add	r24, r24
 13e:	91 50       	subi	r25, 0x01	; 1
 140:	51 f7       	brne	.-44     	; 0x116 <i2c_send_byte+0x2>
 142:	a4 98       	cbi	0x14, 4	; 20
 144:	ac 9a       	sbi	0x15, 4	; 21
 146:	8a e1       	ldi	r24, 0x1A	; 26
 148:	8a 95       	dec	r24
 14a:	f1 f7       	brne	.-4      	; 0x148 <i2c_send_byte+0x34>
 14c:	00 c0       	rjmp	.+0      	; 0x14e <i2c_send_byte+0x3a>
 14e:	a5 98       	cbi	0x14, 5	; 20
 150:	ad 9a       	sbi	0x15, 5	; 21
 152:	2a e1       	ldi	r18, 0x1A	; 26
 154:	2a 95       	dec	r18
 156:	f1 f7       	brne	.-4      	; 0x154 <i2c_send_byte+0x40>
 158:	00 c0       	rjmp	.+0      	; 0x15a <i2c_send_byte+0x46>
 15a:	83 b3       	in	r24, 0x13	; 19
 15c:	a5 9a       	sbi	0x14, 5	; 20
 15e:	ad 98       	cbi	0x15, 5	; 21
 160:	82 95       	swap	r24
 162:	81 70       	andi	r24, 0x01	; 1
 164:	08 95       	ret

00000166 <i2c_read_byte>:
 166:	28 2f       	mov	r18, r24
 168:	a4 98       	cbi	0x14, 4	; 20
 16a:	ac 9a       	sbi	0x15, 4	; 21
 16c:	98 e0       	ldi	r25, 0x08	; 8
 16e:	80 e0       	ldi	r24, 0x00	; 0
 170:	88 0f       	add	r24, r24
 172:	a5 98       	cbi	0x14, 5	; 20
 174:	ad 9a       	sbi	0x15, 5	; 21
 176:	3a e1       	ldi	r19, 0x1A	; 26
 178:	3a 95       	dec	r19
 17a:	f1 f7       	brne	.-4      	; 0x178 <i2c_read_byte+0x12>
 17c:	00 c0       	rjmp	.+0      	; 0x17e <i2c_read_byte+0x18>
 17e:	9c 99       	sbic	0x13, 4	; 19
 180:	81 60       	ori	r24, 0x01	; 1
 182:	a5 9a       	sbi	0x14, 5	; 20
 184:	ad 98       	cbi	0x15, 5	; 21
 186:	3a e1       	ldi	r19, 0x1A	; 26
 188:	3a 95       	dec	r19
 18a:	f1 f7       	brne	.-4      	; 0x188 <i2c_read_byte+0x22>
 18c:	00 c0       	rjmp	.+0      	; 0x18e <i2c_read_byte+0x28>
 18e:	91 50       	subi	r25, 0x01	; 1
 190:	79 f7       	brne	.-34     	; 0x170 <i2c_read_byte+0xa>
 192:	21 11       	cpse	r18, r1
 194:	03 c0       	rjmp	.+6      	; 0x19c <i2c_read_byte+0x36>
 196:	a4 9a       	sbi	0x14, 4	; 20
 198:	ac 98       	cbi	0x15, 4	; 21
 19a:	02 c0       	rjmp	.+4      	; 0x1a0 <i2c_read_byte+0x3a>
 19c:	a4 98       	cbi	0x14, 4	; 20
 19e:	ac 9a       	sbi	0x15, 4	; 21
 1a0:	9a e1       	ldi	r25, 0x1A	; 26
 1a2:	9a 95       	dec	r25
 1a4:	f1 f7       	brne	.-4      	; 0x1a2 <i2c_read_byte+0x3c>
 1a6:	00 c0       	rjmp	.+0      	; 0x1a8 <i2c_read_byte+0x42>
 1a8:	a5 98       	cbi	0x14, 5	; 20
 1aa:	ad 9a       	sbi	0x15, 5	; 21
 1ac:	3a e1       	ldi	r19, 0x1A	; 26
 1ae:	3a 95       	dec	r19
 1b0:	f1 f7       	brne	.-4      	; 0x1ae <i2c_read_byte+0x48>
 1b2:	00 c0       	rjmp	.+0      	; 0x1b4 <i2c_read_byte+0x4e>
 1b4:	a5 9a       	sbi	0x14, 5	; 20
 1b6:	ad 98       	cbi	0x15, 5	; 21
 1b8:	9a e1       	ldi	r25, 0x1A	; 26
 1ba:	9a 95       	dec	r25
 1bc:	f1 f7       	brne	.-4      	; 0x1ba <i2c_read_byte+0x54>
 1be:	00 c0       	rjmp	.+0      	; 0x1c0 <i2c_read_byte+0x5a>
 1c0:	a4 98       	cbi	0x14, 4	; 20
 1c2:	ac 9a       	sbi	0x15, 4	; 21
 1c4:	08 95       	ret

000001c6 <ds3231_init>:
 1c6:	cf 93       	push	r28
 1c8:	9f df       	rcall	.-194    	; 0x108 <i2c_init>
 1ca:	78 df       	rcall	.-272    	; 0xbc <i2c_start>
 1cc:	80 ed       	ldi	r24, 0xD0	; 208
 1ce:	a2 df       	rcall	.-188    	; 0x114 <i2c_send_byte>
 1d0:	8e e0       	ldi	r24, 0x0E	; 14
 1d2:	a0 df       	rcall	.-192    	; 0x114 <i2c_send_byte>
 1d4:	80 df       	rcall	.-256    	; 0xd6 <i2c_restart>
 1d6:	81 ed       	ldi	r24, 0xD1	; 209
 1d8:	9d df       	rcall	.-198    	; 0x114 <i2c_send_byte>
 1da:	81 e0       	ldi	r24, 0x01	; 1
 1dc:	c4 df       	rcall	.-120    	; 0x166 <i2c_read_byte>
 1de:	c8 2f       	mov	r28, r24
 1e0:	3d df       	rcall	.-390    	; 0x5c <i2c_stop>
 1e2:	6c df       	rcall	.-296    	; 0xbc <i2c_start>
 1e4:	80 ed       	ldi	r24, 0xD0	; 208
 1e6:	96 df       	rcall	.-212    	; 0x114 <i2c_send_byte>
 1e8:	8e e0       	ldi	r24, 0x0E	; 14
 1ea:	94 df       	rcall	.-216    	; 0x114 <i2c_send_byte>
 1ec:	74 df       	rcall	.-280    	; 0xd6 <i2c_restart>
 1ee:	8c 2f       	mov	r24, r28
 1f0:	8f 77       	andi	r24, 0x7F	; 127
 1f2:	90 df       	rcall	.-224    	; 0x114 <i2c_send_byte>
 1f4:	33 df       	rcall	.-410    	; 0x5c <i2c_stop>
 1f6:	cf 91       	pop	r28
 1f8:	08 95       	ret

000001fa <ds3231_write_reg>:
 1fa:	cf 93       	push	r28
 1fc:	df 93       	push	r29
 1fe:	d8 2f       	mov	r29, r24
 200:	c6 2f       	mov	r28, r22
 202:	5c df       	rcall	.-328    	; 0xbc <i2c_start>
 204:	80 ed       	ldi	r24, 0xD0	; 208
 206:	86 df       	rcall	.-244    	; 0x114 <i2c_send_byte>
 208:	8d 2f       	mov	r24, r29
 20a:	84 df       	rcall	.-248    	; 0x114 <i2c_send_byte>
 20c:	8c 2f       	mov	r24, r28
 20e:	82 df       	rcall	.-252    	; 0x114 <i2c_send_byte>
 210:	25 df       	rcall	.-438    	; 0x5c <i2c_stop>
 212:	df 91       	pop	r29
 214:	cf 91       	pop	r28
 216:	08 95       	ret

00000218 <ds3231_byte>:
 218:	8a 30       	cpi	r24, 0x0A	; 10
 21a:	30 f0       	brcs	.+12     	; 0x228 <ds3231_byte+0x10>
 21c:	20 e0       	ldi	r18, 0x00	; 0
 21e:	8a 50       	subi	r24, 0x0A	; 10
 220:	2f 5f       	subi	r18, 0xFF	; 255
 222:	8a 30       	cpi	r24, 0x0A	; 10
 224:	e0 f7       	brcc	.-8      	; 0x21e <ds3231_byte+0x6>
 226:	01 c0       	rjmp	.+2      	; 0x22a <ds3231_byte+0x12>
 228:	20 e0       	ldi	r18, 0x00	; 0
 22a:	90 e1       	ldi	r25, 0x10	; 16
 22c:	29 9f       	mul	r18, r25
 22e:	90 01       	movw	r18, r0
 230:	11 24       	eor	r1, r1
 232:	82 2b       	or	r24, r18
 234:	08 95       	ret

00000236 <ds3231_read_time>:
 236:	df 92       	push	r13
 238:	ef 92       	push	r14
 23a:	ff 92       	push	r15
 23c:	0f 93       	push	r16
 23e:	1f 93       	push	r17
 240:	cf 93       	push	r28
 242:	df 93       	push	r29
 244:	00 d0       	rcall	.+0      	; 0x246 <ds3231_read_time+0x10>
 246:	1f 92       	push	r1
 248:	cd b7       	in	r28, 0x3d	; 61
 24a:	de b7       	in	r29, 0x3e	; 62
 24c:	8c 01       	movw	r16, r24
 24e:	36 df       	rcall	.-404    	; 0xbc <i2c_start>
 250:	80 ed       	ldi	r24, 0xD0	; 208
 252:	60 df       	rcall	.-320    	; 0x114 <i2c_send_byte>
 254:	80 e0       	ldi	r24, 0x00	; 0
 256:	5e df       	rcall	.-324    	; 0x114 <i2c_send_byte>
 258:	3e df       	rcall	.-388    	; 0xd6 <i2c_restart>
 25a:	81 ed       	ldi	r24, 0xD1	; 209
 25c:	5b df       	rcall	.-330    	; 0x114 <i2c_send_byte>
 25e:	80 e0       	ldi	r24, 0x00	; 0
 260:	82 df       	rcall	.-252    	; 0x166 <i2c_read_byte>
 262:	e8 2e       	mov	r14, r24
 264:	8b 83       	std	Y+3, r24	; 0x03
 266:	80 e0       	ldi	r24, 0x00	; 0
 268:	7e df       	rcall	.-260    	; 0x166 <i2c_read_byte>
 26a:	d8 2e       	mov	r13, r24
 26c:	8a 83       	std	Y+2, r24	; 0x02
 26e:	81 e0       	ldi	r24, 0x01	; 1
 270:	7a df       	rcall	.-268    	; 0x166 <i2c_read_byte>
 272:	f8 2e       	mov	r15, r24
 274:	89 83       	std	Y+1, r24	; 0x01
 276:	f2 de       	rcall	.-540    	; 0x5c <i2c_stop>
 278:	f6 fe       	sbrs	r15, 6
 27a:	2e c0       	rjmp	.+92     	; 0x2d8 <ds3231_read_time+0xa2>
 27c:	f4 fa       	bst	r15, 4
 27e:	88 27       	eor	r24, r24
 280:	80 f9       	bld	r24, 0
 282:	88 0f       	add	r24, r24
 284:	98 2f       	mov	r25, r24
 286:	99 0f       	add	r25, r25
 288:	99 0f       	add	r25, r25
 28a:	89 0f       	add	r24, r25
 28c:	9f 2d       	mov	r25, r15
 28e:	9f 70       	andi	r25, 0x0F	; 15
 290:	89 0f       	add	r24, r25
 292:	d8 01       	movw	r26, r16
 294:	8c 93       	st	X, r24
 296:	8d 2d       	mov	r24, r13
 298:	82 95       	swap	r24
 29a:	8f 70       	andi	r24, 0x0F	; 15
 29c:	88 0f       	add	r24, r24
 29e:	98 2f       	mov	r25, r24
 2a0:	99 0f       	add	r25, r25
 2a2:	99 0f       	add	r25, r25
 2a4:	98 0f       	add	r25, r24
 2a6:	8d 2d       	mov	r24, r13
 2a8:	8f 70       	andi	r24, 0x0F	; 15
 2aa:	d9 2e       	mov	r13, r25
 2ac:	d8 0e       	add	r13, r24
 2ae:	11 96       	adiw	r26, 0x01	; 1
 2b0:	dc 92       	st	X, r13
 2b2:	11 97       	sbiw	r26, 0x01	; 1
 2b4:	8e 2d       	mov	r24, r14
 2b6:	82 95       	swap	r24
 2b8:	8f 70       	andi	r24, 0x0F	; 15
 2ba:	88 0f       	add	r24, r24
 2bc:	98 2f       	mov	r25, r24
 2be:	99 0f       	add	r25, r25
 2c0:	99 0f       	add	r25, r25
 2c2:	98 0f       	add	r25, r24
 2c4:	8e 2d       	mov	r24, r14
 2c6:	8f 70       	andi	r24, 0x0F	; 15
 2c8:	e9 2e       	mov	r14, r25
 2ca:	e8 0e       	add	r14, r24
 2cc:	12 96       	adiw	r26, 0x02	; 2
 2ce:	ec 92       	st	X, r14
 2d0:	f5 fa       	bst	r15, 5
 2d2:	88 27       	eor	r24, r24
 2d4:	80 f9       	bld	r24, 0
 2d6:	17 c0       	rjmp	.+46     	; 0x306 <ds3231_read_time+0xd0>
 2d8:	fe 01       	movw	r30, r28
 2da:	31 96       	adiw	r30, 0x01	; 1
 2dc:	a8 01       	movw	r20, r16
 2de:	4d 5f       	subi	r20, 0xFD	; 253
 2e0:	5f 4f       	sbci	r21, 0xFF	; 255
 2e2:	81 91       	ld	r24, Z+
 2e4:	98 2f       	mov	r25, r24
 2e6:	92 95       	swap	r25
 2e8:	9f 70       	andi	r25, 0x0F	; 15
 2ea:	99 0f       	add	r25, r25
 2ec:	29 2f       	mov	r18, r25
 2ee:	22 0f       	add	r18, r18
 2f0:	22 0f       	add	r18, r18
 2f2:	92 0f       	add	r25, r18
 2f4:	8f 70       	andi	r24, 0x0F	; 15
 2f6:	89 0f       	add	r24, r25
 2f8:	d8 01       	movw	r26, r16
 2fa:	8d 93       	st	X+, r24
 2fc:	8d 01       	movw	r16, r26
 2fe:	4a 17       	cp	r20, r26
 300:	5b 07       	cpc	r21, r27
 302:	79 f7       	brne	.-34     	; 0x2e2 <ds3231_read_time+0xac>
 304:	82 e0       	ldi	r24, 0x02	; 2
 306:	0f 90       	pop	r0
 308:	0f 90       	pop	r0
 30a:	0f 90       	pop	r0
 30c:	df 91       	pop	r29
 30e:	cf 91       	pop	r28
 310:	1f 91       	pop	r17
 312:	0f 91       	pop	r16
 314:	ff 90       	pop	r15
 316:	ef 90       	pop	r14
 318:	df 90       	pop	r13
 31a:	08 95       	ret

0000031c <segchar>:
 31c:	90 e0       	ldi	r25, 0x00	; 0
 31e:	8a 30       	cpi	r24, 0x0A	; 10
 320:	91 05       	cpc	r25, r1
 322:	00 f5       	brcc	.+64     	; 0x364 <segchar+0x48>
 324:	fc 01       	movw	r30, r24
 326:	ed 5e       	subi	r30, 0xED	; 237
 328:	ff 4f       	sbci	r31, 0xFF	; 255
 32a:	09 94       	ijmp
 32c:	12 ba       	out	0x12, r1	; 18
 32e:	08 95       	ret
 330:	81 e0       	ldi	r24, 0x01	; 1
 332:	82 bb       	out	0x12, r24	; 18
 334:	08 95       	ret
 336:	82 e0       	ldi	r24, 0x02	; 2
 338:	82 bb       	out	0x12, r24	; 18
 33a:	08 95       	ret
 33c:	83 e0       	ldi	r24, 0x03	; 3
 33e:	82 bb       	out	0x12, r24	; 18
 340:	08 95       	ret
 342:	84 e0       	ldi	r24, 0x04	; 4
 344:	82 bb       	out	0x12, r24	; 18
 346:	08 95       	ret
 348:	85 e0       	ldi	r24, 0x05	; 5
 34a:	82 bb       	out	0x12, r24	; 18
 34c:	08 95       	ret
 34e:	86 e0       	ldi	r24, 0x06	; 6
 350:	82 bb       	out	0x12, r24	; 18
 352:	08 95       	ret
 354:	87 e0       	ldi	r24, 0x07	; 7
 356:	82 bb       	out	0x12, r24	; 18
 358:	08 95       	ret
 35a:	88 e0       	ldi	r24, 0x08	; 8
 35c:	82 bb       	out	0x12, r24	; 18
 35e:	08 95       	ret
 360:	89 e0       	ldi	r24, 0x09	; 9
 362:	82 bb       	out	0x12, r24	; 18
 364:	08 95       	ret

00000366 <timer_ini>:
 366:	8e b5       	in	r24, 0x2e	; 46
 368:	88 60       	ori	r24, 0x08	; 8
 36a:	8e bd       	out	0x2e, r24	; 46
 36c:	89 b7       	in	r24, 0x39	; 57
 36e:	80 61       	ori	r24, 0x10	; 16
 370:	89 bf       	out	0x39, r24	; 57
 372:	8a e7       	ldi	r24, 0x7A	; 122
 374:	8b bd       	out	0x2b, r24	; 43
 376:	82 e1       	ldi	r24, 0x12	; 18
 378:	8a bd       	out	0x2a, r24	; 42
 37a:	8e b5       	in	r24, 0x2e	; 46
 37c:	81 60       	ori	r24, 0x01	; 1
 37e:	8e bd       	out	0x2e, r24	; 46
 380:	08 95       	ret

00000382 <__vector_6>:


//-----------------------------------------//

ISR (TIMER1_COMPA_vect)
{
 382:	1f 92       	push	r1
 384:	0f 92       	push	r0
 386:	0f b6       	in	r0, 0x3f	; 63
 388:	0f 92       	push	r0
 38a:	11 24       	eor	r1, r1
 38c:	2f 93       	push	r18
 38e:	3f 93       	push	r19
 390:	4f 93       	push	r20
 392:	5f 93       	push	r21
 394:	6f 93       	push	r22
 396:	7f 93       	push	r23
 398:	8f 93       	push	r24
 39a:	9f 93       	push	r25
 39c:	af 93       	push	r26
 39e:	bf 93       	push	r27
 3a0:	ef 93       	push	r30
 3a2:	ff 93       	push	r31
	if (n_count==0) {PORTC&=~(1<<PORTC0);PORTC&=~(1<<PORTC1);PORTC&=~(1<<PORTC2);PORTC&=~(1<<PORTC3);PORTB&=~(1<<PORTB0);PORTB|=(1<<PORTB1); segchar(R1);}
 3a4:	80 91 60 00 	lds	r24, 0x0060	; 0x800060 <_edata>
 3a8:	81 11       	cpse	r24, r1
 3aa:	09 c0       	rjmp	.+18     	; 0x3be <__vector_6+0x3c>
 3ac:	a8 98       	cbi	0x15, 0	; 21
 3ae:	a9 98       	cbi	0x15, 1	; 21
 3b0:	aa 98       	cbi	0x15, 2	; 21
 3b2:	ab 98       	cbi	0x15, 3	; 21
 3b4:	c0 98       	cbi	0x18, 0	; 24
 3b6:	c1 9a       	sbi	0x18, 1	; 24
 3b8:	80 91 69 00 	lds	r24, 0x0069	; 0x800069 <R1>
 3bc:	af df       	rcall	.-162    	; 0x31c <segchar>
	if (n_count==1) {PORTC&=~(1<<PORTC0);PORTC&=~(1<<PORTC1);PORTC&=~(1<<PORTC2);PORTC&=~(1<<PORTC3);PORTB&=~(1<<PORTB1);PORTB|=(1<<PORTB0); segchar(R2);}
 3be:	80 91 60 00 	lds	r24, 0x0060	; 0x800060 <_edata>
 3c2:	81 30       	cpi	r24, 0x01	; 1
 3c4:	49 f4       	brne	.+18     	; 0x3d8 <__vector_6+0x56>
 3c6:	a8 98       	cbi	0x15, 0	; 21
 3c8:	a9 98       	cbi	0x15, 1	; 21
 3ca:	aa 98       	cbi	0x15, 2	; 21
 3cc:	ab 98       	cbi	0x15, 3	; 21
 3ce:	c1 98       	cbi	0x18, 1	; 24
 3d0:	c0 9a       	sbi	0x18, 0	; 24
 3d2:	80 91 68 00 	lds	r24, 0x0068	; 0x800068 <R2>
 3d6:	a2 df       	rcall	.-188    	; 0x31c <segchar>
	if (n_count==2) {PORTC&=~(1<<PORTC0);PORTC&=~(1<<PORTC1);PORTC&=~(1<<PORTC2);PORTB&=~(1<<PORTB0);PORTB&=~(1<<PORTB1);PORTC|=(1<<PORTC3); segchar(R3);}
 3d8:	80 91 60 00 	lds	r24, 0x0060	; 0x800060 <_edata>
 3dc:	82 30       	cpi	r24, 0x02	; 2
 3de:	49 f4       	brne	.+18     	; 0x3f2 <__vector_6+0x70>
 3e0:	a8 98       	cbi	0x15, 0	; 21
 3e2:	a9 98       	cbi	0x15, 1	; 21
 3e4:	aa 98       	cbi	0x15, 2	; 21
 3e6:	c0 98       	cbi	0x18, 0	; 24
 3e8:	c1 98       	cbi	0x18, 1	; 24
 3ea:	ab 9a       	sbi	0x15, 3	; 21
 3ec:	80 91 67 00 	lds	r24, 0x0067	; 0x800067 <R3>
 3f0:	95 df       	rcall	.-214    	; 0x31c <segchar>
	if (n_count==3)	{PORTC&=~(1<<PORTC0);PORTC&=~(1<<PORTC1);PORTC&=~(1<<PORTC3);PORTB&=~(1<<PORTB0);PORTB&=~(1<<PORTB1);PORTC|=(1<<PORTC2); segchar(R4);}
 3f2:	80 91 60 00 	lds	r24, 0x0060	; 0x800060 <_edata>
 3f6:	83 30       	cpi	r24, 0x03	; 3
 3f8:	49 f4       	brne	.+18     	; 0x40c <__LOCK_REGION_LENGTH__+0xc>
 3fa:	a8 98       	cbi	0x15, 0	; 21
 3fc:	a9 98       	cbi	0x15, 1	; 21
 3fe:	ab 98       	cbi	0x15, 3	; 21
 400:	c0 98       	cbi	0x18, 0	; 24
 402:	c1 98       	cbi	0x18, 1	; 24
 404:	aa 9a       	sbi	0x15, 2	; 21
 406:	80 91 66 00 	lds	r24, 0x0066	; 0x800066 <R4>
 40a:	88 df       	rcall	.-240    	; 0x31c <segchar>
	if (n_count==4)	{PORTC&=~(1<<PORTC0);PORTC&=~(1<<PORTC2);PORTC&=~(1<<PORTC3);PORTB&=~(1<<PORTB0);PORTB&=~(1<<PORTB1);PORTC|=(1<<PORTC1); segchar(R5);}
 40c:	80 91 60 00 	lds	r24, 0x0060	; 0x800060 <_edata>
 410:	84 30       	cpi	r24, 0x04	; 4
 412:	49 f4       	brne	.+18     	; 0x426 <__LOCK_REGION_LENGTH__+0x26>
 414:	a8 98       	cbi	0x15, 0	; 21
 416:	aa 98       	cbi	0x15, 2	; 21
 418:	ab 98       	cbi	0x15, 3	; 21
 41a:	c0 98       	cbi	0x18, 0	; 24
 41c:	c1 98       	cbi	0x18, 1	; 24
 41e:	a9 9a       	sbi	0x15, 1	; 21
 420:	80 91 65 00 	lds	r24, 0x0065	; 0x800065 <R5>
 424:	7b df       	rcall	.-266    	; 0x31c <segchar>
	if (n_count==5)	{PORTC&=~(1<<PORTC1);PORTC&=~(1<<PORTC2);PORTC&=~(1<<PORTC3);PORTB&=~(1<<PORTB0);PORTB&=~(1<<PORTB1);PORTC|=(1<<PORTC0); segchar(R6);}
 426:	80 91 60 00 	lds	r24, 0x0060	; 0x800060 <_edata>
 42a:	85 30       	cpi	r24, 0x05	; 5
 42c:	49 f4       	brne	.+18     	; 0x440 <__LOCK_REGION_LENGTH__+0x40>
 42e:	a9 98       	cbi	0x15, 1	; 21
 430:	aa 98       	cbi	0x15, 2	; 21
 432:	ab 98       	cbi	0x15, 3	; 21
 434:	c0 98       	cbi	0x18, 0	; 24
 436:	c1 98       	cbi	0x18, 1	; 24
 438:	a8 9a       	sbi	0x15, 0	; 21
 43a:	80 91 64 00 	lds	r24, 0x0064	; 0x800064 <R6>
 43e:	6e df       	rcall	.-292    	; 0x31c <segchar>
	n_count++;
 440:	80 91 60 00 	lds	r24, 0x0060	; 0x800060 <_edata>
 444:	8f 5f       	subi	r24, 0xFF	; 255
	if (n_count>5) n_count=0;
 446:	86 30       	cpi	r24, 0x06	; 6
 448:	18 f4       	brcc	.+6      	; 0x450 <__LOCK_REGION_LENGTH__+0x50>
	if (n_count==1) {PORTC&=~(1<<PORTC0);PORTC&=~(1<<PORTC1);PORTC&=~(1<<PORTC2);PORTC&=~(1<<PORTC3);PORTB&=~(1<<PORTB1);PORTB|=(1<<PORTB0); segchar(R2);}
	if (n_count==2) {PORTC&=~(1<<PORTC0);PORTC&=~(1<<PORTC1);PORTC&=~(1<<PORTC2);PORTB&=~(1<<PORTB0);PORTB&=~(1<<PORTB1);PORTC|=(1<<PORTC3); segchar(R3);}
	if (n_count==3)	{PORTC&=~(1<<PORTC0);PORTC&=~(1<<PORTC1);PORTC&=~(1<<PORTC3);PORTB&=~(1<<PORTB0);PORTB&=~(1<<PORTB1);PORTC|=(1<<PORTC2); segchar(R4);}
	if (n_count==4)	{PORTC&=~(1<<PORTC0);PORTC&=~(1<<PORTC2);PORTC&=~(1<<PORTC3);PORTB&=~(1<<PORTB0);PORTB&=~(1<<PORTB1);PORTC|=(1<<PORTC1); segchar(R5);}
	if (n_count==5)	{PORTC&=~(1<<PORTC1);PORTC&=~(1<<PORTC2);PORTC&=~(1<<PORTC3);PORTB&=~(1<<PORTB0);PORTB&=~(1<<PORTB1);PORTC|=(1<<PORTC0); segchar(R6);}
	n_count++;
 44a:	80 93 60 00 	sts	0x0060, r24	; 0x800060 <_edata>
 44e:	02 c0       	rjmp	.+4      	; 0x454 <__LOCK_REGION_LENGTH__+0x54>
	if (n_count>5) n_count=0;
 450:	10 92 60 00 	sts	0x0060, r1	; 0x800060 <_edata>
	
}
 454:	ff 91       	pop	r31
 456:	ef 91       	pop	r30
 458:	bf 91       	pop	r27
 45a:	af 91       	pop	r26
 45c:	9f 91       	pop	r25
 45e:	8f 91       	pop	r24
 460:	7f 91       	pop	r23
 462:	6f 91       	pop	r22
 464:	5f 91       	pop	r21
 466:	4f 91       	pop	r20
 468:	3f 91       	pop	r19
 46a:	2f 91       	pop	r18
 46c:	0f 90       	pop	r0
 46e:	0f be       	out	0x3f, r0	; 63
 470:	0f 90       	pop	r0
 472:	1f 90       	pop	r1
 474:	18 95       	reti

00000476 <ledprint>:


void ledprint(unsigned char *number)
{	
 476:	fc 01       	movw	r30, r24
	cli();
 478:	f8 94       	cli
	R5 = *number%10;
 47a:	80 81       	ld	r24, Z
 47c:	9d ec       	ldi	r25, 0xCD	; 205
 47e:	89 9f       	mul	r24, r25
 480:	21 2d       	mov	r18, r1
 482:	11 24       	eor	r1, r1
 484:	26 95       	lsr	r18
 486:	26 95       	lsr	r18
 488:	26 95       	lsr	r18
 48a:	22 0f       	add	r18, r18
 48c:	32 2f       	mov	r19, r18
 48e:	33 0f       	add	r19, r19
 490:	33 0f       	add	r19, r19
 492:	23 0f       	add	r18, r19
 494:	82 1b       	sub	r24, r18
 496:	80 93 65 00 	sts	0x0065, r24	; 0x800065 <R5>
	R6 = *number/10;
 49a:	20 81       	ld	r18, Z
 49c:	29 9f       	mul	r18, r25
 49e:	21 2d       	mov	r18, r1
 4a0:	11 24       	eor	r1, r1
 4a2:	26 95       	lsr	r18
 4a4:	26 95       	lsr	r18
 4a6:	26 95       	lsr	r18
 4a8:	20 93 64 00 	sts	0x0064, r18	; 0x800064 <R6>
	number++;
	R3 = *number%10;
 4ac:	21 81       	ldd	r18, Z+1	; 0x01
 4ae:	29 9f       	mul	r18, r25
 4b0:	81 2d       	mov	r24, r1
 4b2:	11 24       	eor	r1, r1
 4b4:	86 95       	lsr	r24
 4b6:	86 95       	lsr	r24
 4b8:	86 95       	lsr	r24
 4ba:	48 2f       	mov	r20, r24
 4bc:	44 0f       	add	r20, r20
 4be:	34 2f       	mov	r19, r20
 4c0:	33 0f       	add	r19, r19
 4c2:	33 0f       	add	r19, r19
 4c4:	34 0f       	add	r19, r20
 4c6:	23 1b       	sub	r18, r19
 4c8:	20 93 67 00 	sts	0x0067, r18	; 0x800067 <R3>
	R4 = *number/10;
 4cc:	80 93 66 00 	sts	0x0066, r24	; 0x800066 <R4>
	number++;
	R1 = *number%10;
 4d0:	82 81       	ldd	r24, Z+2	; 0x02
 4d2:	89 9f       	mul	r24, r25
 4d4:	91 2d       	mov	r25, r1
 4d6:	11 24       	eor	r1, r1
 4d8:	96 95       	lsr	r25
 4da:	96 95       	lsr	r25
 4dc:	96 95       	lsr	r25
 4de:	39 2f       	mov	r19, r25
 4e0:	33 0f       	add	r19, r19
 4e2:	23 2f       	mov	r18, r19
 4e4:	22 0f       	add	r18, r18
 4e6:	22 0f       	add	r18, r18
 4e8:	23 0f       	add	r18, r19
 4ea:	82 1b       	sub	r24, r18
 4ec:	80 93 69 00 	sts	0x0069, r24	; 0x800069 <R1>
	R2 = *number/10;
 4f0:	90 93 68 00 	sts	0x0068, r25	; 0x800068 <R2>
	
	
	
	
	
	sei();
 4f4:	78 94       	sei
 4f6:	08 95       	ret

000004f8 <main>:
int main(void)
{
	
	
	
	DDRD=0b00001111;
 4f8:	8f e0       	ldi	r24, 0x0F	; 15
 4fa:	81 bb       	out	0x11, r24	; 17
	DDRB=0b00000011;
 4fc:	93 e0       	ldi	r25, 0x03	; 3
 4fe:	97 bb       	out	0x17, r25	; 23
	DDRC=0b00001111;
 500:	84 bb       	out	0x14, r24	; 20
	
	PORTD=0b10000000;
 502:	80 e8       	ldi	r24, 0x80	; 128
 504:	82 bb       	out	0x12, r24	; 18
	PORTB=0b00000100;
 506:	84 e0       	ldi	r24, 0x04	; 4
 508:	88 bb       	out	0x18, r24	; 24
	PORTC=0b00000000;
 50a:	15 ba       	out	0x15, r1	; 21
	
	timer_ini(); 
 50c:	2c df       	rcall	.-424    	; 0x366 <timer_ini>
	#else
		//round up by default
		__ticks_dc = (uint32_t)(ceil(fabs(__tmp)));
	#endif

	__builtin_avr_delay_cycles(__ticks_dc);
 50e:	28 e2       	ldi	r18, 0x28	; 40
 510:	2a 95       	dec	r18
 512:	f1 f7       	brne	.-4      	; 0x510 <main+0x18>
	_delay_us(15);
	ds3231_init();
 514:	58 de       	rcall	.-848    	; 0x1c6 <ds3231_init>
 516:	88 e2       	ldi	r24, 0x28	; 40
 518:	8a 95       	dec	r24
 51a:	f1 f7       	brne	.-4      	; 0x518 <main+0x20>
	_delay_us(15);


	sei();
 51c:	78 94       	sei
	{

		{
//------------------------------------------------------------------------------------------------	
//Индикация			
			ds3231_read_time(time);
 51e:	81 e6       	ldi	r24, 0x61	; 97
 520:	90 e0       	ldi	r25, 0x00	; 0
 522:	89 de       	rcall	.-750    	; 0x236 <ds3231_read_time>
			ledprint(time);
 524:	81 e6       	ldi	r24, 0x61	; 97
 526:	90 e0       	ldi	r25, 0x00	; 0
 528:	a6 df       	rcall	.-180    	; 0x476 <ledprint>
//------------------------------------------------------------------------------------------------	
			// Настройка часов
			if (!(PINB&0b00000100))
 52a:	b2 99       	sbic	0x16, 2	; 22
 52c:	f8 cf       	rjmp	.-16     	; 0x51e <main+0x26>
			 				{
			 					ds3231_read_time(time);
 52e:	81 e6       	ldi	r24, 0x61	; 97
 530:	90 e0       	ldi	r25, 0x00	; 0
 532:	81 de       	rcall	.-766    	; 0x236 <ds3231_read_time>
			 					if (time[0]>=23)
 534:	80 91 61 00 	lds	r24, 0x0061	; 0x800061 <time>
 538:	87 31       	cpi	r24, 0x17	; 23
 53a:	18 f0       	brcs	.+6      	; 0x542 <main+0x4a>
			 					{
			 						time[0]=0;
 53c:	10 92 61 00 	sts	0x0061, r1	; 0x800061 <time>
 540:	03 c0       	rjmp	.+6      	; 0x548 <main+0x50>
			 					}
			 					else
			 					{
			 						time[0]++;
 542:	8f 5f       	subi	r24, 0xFF	; 255
 544:	80 93 61 00 	sts	0x0061, r24	; 0x800061 <time>
			 					}
			 					unsigned char time0_1 [1]= {0};
			 					time0_1 [0]=ds3231_byte(time [0]);
 548:	80 91 61 00 	lds	r24, 0x0061	; 0x800061 <time>
 54c:	65 de       	rcall	.-822    	; 0x218 <ds3231_byte>
			 					ds3231_write_reg(0x02 ,time0_1[0]);
 54e:	68 2f       	mov	r22, r24
 550:	82 e0       	ldi	r24, 0x02	; 2
 552:	53 de       	rcall	.-858    	; 0x1fa <ds3231_write_reg>
	#else
		//round up by default
		__ticks_dc = (uint32_t)(ceil(fabs(__tmp)));
	#endif

	__builtin_avr_delay_cycles(__ticks_dc);
 554:	9f ef       	ldi	r25, 0xFF	; 255
 556:	24 e3       	ldi	r18, 0x34	; 52
 558:	8c e0       	ldi	r24, 0x0C	; 12
 55a:	91 50       	subi	r25, 0x01	; 1
 55c:	20 40       	sbci	r18, 0x00	; 0
 55e:	80 40       	sbci	r24, 0x00	; 0
 560:	e1 f7       	brne	.-8      	; 0x55a <main+0x62>
 562:	00 c0       	rjmp	.+0      	; 0x564 <main+0x6c>
 564:	00 00       	nop
 566:	db cf       	rjmp	.-74     	; 0x51e <main+0x26>

00000568 <_exit>:
 568:	f8 94       	cli

0000056a <__stop_program>:
 56a:	ff cf       	rjmp	.-2      	; 0x56a <__stop_program>
